target datalayout = "e-m:e-p270:32:32-p271:32:32-p272:64:64-i64:64-i128:128-f80:128-n8:16:32:64-S128"
target triple = "x86_64-pc-linux-gnu"

%struct.CodedBitstreamContext = type { ptr, ptr, ptr, ptr, i32, i32, i32, ptr, ptr, ptr, ptr, i64 }
%struct.VP9RawFrameHeader = type { i8, i8, i8, i8, i8, i8, i8, i8, i8, i8, i8, i8, i8, i8, i8, i8, [3 x i8], [4 x i8], i8, i8, i8, i8, [3 x i8], i16, i16, i8, i16, i16, i8, i8, i8, i8, i8, i8, [4 x i8], [4 x i8], [2 x i8], [2 x i8], i8, i8, i8, i8, i8, i8, [7 x i8], i8, [3 x i8], i8, i8, [8 x [4 x i8]], [8 x [4 x i8]], [8 x [4 x i8]], i8, i8, i16 }
%struct.CodedBitstreamVP9Context = type { i32, i16, i16, i16, i16, i32, i32, i8, i8, i32, [8 x %struct.VP9ReferenceFrameState] }
%struct.VP9ReferenceFrameState = type { i32, i32, i32, i32, i32 }

@.str.80 = private unnamed_addr constant [15 x i8] c"tile_cols_log2\00", align 1
@.str.81 = private unnamed_addr constant [15 x i8] c"tile_rows_log2\00", align 1

; Function Attrs: nounwind uwtable
define internal i32 @cbs_vp9_write_tile_info(ptr noundef %0, ptr noundef %1, ptr noundef %2) #0 {
  %4 = alloca i32, align 4
  %5 = alloca ptr, align 8
  %6 = alloca ptr, align 8
  %7 = alloca ptr, align 8
  %8 = alloca ptr, align 8
  %9 = alloca i32, align 4
  %10 = alloca i32, align 4
  %11 = alloca i32, align 4
  %12 = alloca i32, align 4
  store ptr %0, ptr %5, align 8, !tbaa !4
  store ptr %1, ptr %6, align 8, !tbaa !45
  store ptr %2, ptr %7, align 8, !tbaa !79
  call void @llvm.lifetime.start.p0(i64 8, ptr %8) #8
  %13 = load ptr, ptr %5, align 8, !tbaa !4
  %14 = getelementptr inbounds nuw %struct.CodedBitstreamContext, ptr %13, i32 0, i32 2
  %15 = load ptr, ptr %14, align 8, !tbaa !59
  store ptr %15, ptr %8, align 8, !tbaa !60
  call void @llvm.lifetime.start.p0(i64 4, ptr %9) #8
  call void @llvm.lifetime.start.p0(i64 4, ptr %10) #8
  call void @llvm.lifetime.start.p0(i64 4, ptr %11) #8
  store i32 0, ptr %9, align 4, !tbaa !11
  br label %16

16:                                               ; preds = %24, %3
  %17 = load i32, ptr %9, align 4, !tbaa !11
  %18 = shl i32 64, %17
  %19 = load ptr, ptr %8, align 8, !tbaa !60
  %20 = getelementptr inbounds nuw %struct.CodedBitstreamVP9Context, ptr %19, i32 0, i32 3
  %21 = load i16, ptr %20, align 4, !tbaa !126
  %22 = zext i16 %21 to i32
  %23 = icmp slt i32 %18, %22
  br i1 %23, label %24, label %27

24:                                               ; preds = %16
  %25 = load i32, ptr %9, align 4, !tbaa !11
  %26 = add nsw i32 %25, 1
  store i32 %26, ptr %9, align 4, !tbaa !11
  br label %16, !llvm.loop !174

27:                                               ; preds = %16
  store i32 0, ptr %10, align 4, !tbaa !11
  br label %28

28:                                               ; preds = %37, %27
  %29 = load ptr, ptr %8, align 8, !tbaa !60
  %30 = getelementptr inbounds nuw %struct.CodedBitstreamVP9Context, ptr %29, i32 0, i32 3
  %31 = load i16, ptr %30, align 4, !tbaa !126
  %32 = zext i16 %31 to i32
  %33 = load i32, ptr %10, align 4, !tbaa !11
  %34 = add nsw i32 %33, 1
  %35 = ashr i32 %32, %34
  %36 = icmp sge i32 %35, 4
  br i1 %36, label %37, label %40

37:                                               ; preds = %28
  %38 = load i32, ptr %10, align 4, !tbaa !11
  %39 = add nsw i32 %38, 1
  store i32 %39, ptr %10, align 4, !tbaa !11
  br label %28, !llvm.loop !175

40:                                               ; preds = %28
  br label %41

41:                                               ; preds = %40
  br label %42

42:                                               ; preds = %41
  %43 = load ptr, ptr %5, align 8, !tbaa !4
  %44 = load ptr, ptr %6, align 8, !tbaa !45
  %45 = load i32, ptr %9, align 4, !tbaa !11
  %46 = load i32, ptr %10, align 4, !tbaa !11
  %47 = load ptr, ptr %7, align 8, !tbaa !79
  %48 = getelementptr inbounds nuw %struct.VP9RawFrameHeader, ptr %47, i32 0, i32 52
  %49 = load i8, ptr %48, align 1, !tbaa !117
  %50 = zext i8 %49 to i32
  %51 = call i32 @cbs_vp9_write_increment(ptr noundef %43, ptr noundef %44, i32 noundef %45, i32 noundef %46, ptr noundef @.str.80, i32 noundef %50)
  store i32 %51, ptr %11, align 4, !tbaa !11
  %52 = load i32, ptr %11, align 4, !tbaa !11
  %53 = icmp slt i32 %52, 0
  br i1 %53, label %54, label %56

54:                                               ; preds = %42
  %55 = load i32, ptr %11, align 4, !tbaa !11
  store i32 %55, ptr %4, align 4
  store i32 1, ptr %12, align 4
  br label %79

56:                                               ; preds = %42
  br label %57

57:                                               ; preds = %56
  br label %58

58:                                               ; preds = %57
  br label %59

59:                                               ; preds = %58
  br label %60

60:                                               ; preds = %59
  br label %61

61:                                               ; preds = %60
  br label %62

62:                                               ; preds = %61
  %63 = load ptr, ptr %5, align 8, !tbaa !4
  %64 = load ptr, ptr %6, align 8, !tbaa !45
  %65 = load ptr, ptr %7, align 8, !tbaa !79
  %66 = getelementptr inbounds nuw %struct.VP9RawFrameHeader, ptr %65, i32 0, i32 53
  %67 = load i8, ptr %66, align 2, !tbaa !118
  %68 = zext i8 %67 to i32
  %69 = call i32 @cbs_vp9_write_increment(ptr noundef %63, ptr noundef %64, i32 noundef 0, i32 noundef 2, ptr noundef @.str.81, i32 noundef %68)
  store i32 %69, ptr %11, align 4, !tbaa !11
  %70 = load i32, ptr %11, align 4, !tbaa !11
  %71 = icmp slt i32 %70, 0
  br i1 %71, label %72, label %74

72:                                               ; preds = %62
  %73 = load i32, ptr %11, align 4, !tbaa !11
  store i32 %73, ptr %4, align 4
  store i32 1, ptr %12, align 4
  br label %79

74:                                               ; preds = %62
  br label %75

75:                                               ; preds = %74
  br label %76

76:                                               ; preds = %75
  br label %77

77:                                               ; preds = %76
  br label %78

78:                                               ; preds = %77
  store i32 0, ptr %4, align 4
  store i32 1, ptr %12, align 4
  br label %79

79:                                               ; preds = %78, %72, %54
  call void @llvm.lifetime.end.p0(i64 4, ptr %11) #8
  call void @llvm.lifetime.end.p0(i64 4, ptr %10) #8
  call void @llvm.lifetime.end.p0(i64 4, ptr %9) #8
  call void @llvm.lifetime.end.p0(i64 8, ptr %8) #8
  %80 = load i32, ptr %4, align 4
  ret i32 %80
}