; Function Attrs: nounwind uwtable
define internal fastcc range(i32 -1094995529, 1) i32 @cbs_vp9_write_tile_info(ptr noundef readonly captures(none) %0, ptr noundef %1, ptr noundef readonly captures(none) %2) unnamed_addr #0 {
  %4 = getelementptr inbounds nuw i8, ptr %0, i64 16
  %5 = load ptr, ptr %4, align 8, !tbaa !41
  %6 = getelementptr inbounds nuw i8, ptr %5, i64 8
  %7 = load i16, ptr %6, align 4, !tbaa !109
  %8 = zext i16 %7 to i32
  br label %9

9:                                                ; preds = %9, %3
  %.019 = phi i32 [ 0, %3 ], [ %12, %9 ]
  %10 = shl i32 64, %.019
  %11 = icmp slt i32 %10, %8
  %12 = add nuw nsw i32 %.019, 1
  br i1 %11, label %9, label %.preheader, !llvm.loop !152

.preheader:                                       ; preds = %9, %.preheader
  %.0 = phi i32 [ %13, %.preheader ], [ 0, %9 ]
  %13 = add nuw nsw i32 %.0, 1
  %14 = lshr i32 %8, %13
  %15 = icmp samesign ugt i32 %14, 3
  br i1 %15, label %.preheader, label %16, !llvm.loop !153

16:                                               ; preds = %.preheader
  %17 = getelementptr inbounds nuw i8, ptr %2, i64 173
  %18 = load i8, ptr %17, align 1, !tbaa !73
  %19 = zext i8 %18 to i32
  %20 = tail call fastcc i32 @cbs_vp9_write_increment(ptr noundef nonnull %0, ptr noundef %1, i32 noundef %.019, i32 noundef %.0, ptr noundef nonnull @.str.80, i32 noundef %19)
  %21 = icmp slt i32 %20, 0
  br i1 %21, label %27, label %22

22:                                               ; preds = %16
  %23 = getelementptr inbounds nuw i8, ptr %2, i64 174
  %24 = load i8, ptr %23, align 2, !tbaa !74
  %25 = zext i8 %24 to i32
  %26 = tail call fastcc i32 @cbs_vp9_write_increment(ptr noundef nonnull %0, ptr noundef %1, i32 noundef 0, i32 noundef 2, ptr noundef nonnull @.str.81, i32 noundef %25)
  br label %27

27:                                               ; preds = %22, %16
  %.020 = phi i32 [ %20, %16 ], [ %26, %22 ]
  ret i32 %.020
}